target datalayout = "e-m:e-p270:32:32-p271:32:32-p272:64:64-i64:64-i128:128-f80:128-n8:16:32:64-S128"
target triple = "x86_64-pc-linux-gnu"

%struct.AVFilterContext = type { ptr, ptr, ptr, ptr, ptr, i32, ptr, ptr, i32, ptr, ptr, i32, i32, ptr, ptr, ptr, ptr, i32, ptr, i32, i32 }
%struct.DetelecineContext = type { ptr, i32, ptr, i32, i32, i32, i32, i64, %struct.AVRational, %struct.AVRational, i32, i32, [4 x i32], [4 x i32], [2 x ptr], ptr }
%struct.AVRational = type { i32, i32 }
%struct.AVFilterLink = type { ptr, ptr, ptr, ptr, i32, i32, i32, i32, %struct.AVRational, i32, i32, i32, %struct.AVChannelLayout, %struct.AVRational, ptr, i32, %struct.AVFilterFormatsConfig, %struct.AVFilterFormatsConfig }
%struct.AVChannelLayout = type { i32, i32, %union.anon.1, ptr }
%union.anon.1 = type { i64 }
%struct.AVFilterFormatsConfig = type { ptr, ptr, ptr, ptr, ptr }
%struct.AVPixFmtDescriptor = type { ptr, i8, i8, i8, i64, [4 x %struct.AVComponentDescriptor], ptr }
%struct.AVComponentDescriptor = type { i32, i32, i32, i32, i32 }

; Function Attrs: nounwind uwtable
define internal i32 @config_input(ptr noundef %0) #1 {
  %2 = alloca i32, align 4
  %3 = alloca ptr, align 8
  %4 = alloca ptr, align 8
  %5 = alloca ptr, align 8
  %6 = alloca i32, align 4
  %7 = alloca i32, align 4
  store ptr %0, ptr %3, align 8, !tbaa !44
  call void @llvm.lifetime.start.p0(i64 8, ptr %4) #11
  %8 = load ptr, ptr %3, align 8, !tbaa !44
  %9 = getelementptr inbounds nuw %struct.AVFilterLink, ptr %8, i32 0, i32 2
  %10 = load ptr, ptr %9, align 8, !tbaa !47
  %11 = getelementptr inbounds nuw %struct.AVFilterContext, ptr %10, i32 0, i32 9
  %12 = load ptr, ptr %11, align 8, !tbaa !9
  store ptr %12, ptr %4, align 8, !tbaa !22
  call void @llvm.lifetime.start.p0(i64 8, ptr %5) #11
  %13 = load ptr, ptr %3, align 8, !tbaa !44
  %14 = getelementptr inbounds nuw %struct.AVFilterLink, ptr %13, i32 0, i32 5
  %15 = load i32, ptr %14, align 4, !tbaa !80
  %16 = call ptr @av_pix_fmt_desc_get(i32 noundef %15)
  store ptr %16, ptr %5, align 8, !tbaa !81
  call void @llvm.lifetime.start.p0(i64 4, ptr %6) #11
  %17 = load ptr, ptr %3, align 8, !tbaa !44
  %18 = load ptr, ptr %3, align 8, !tbaa !44
  %19 = getelementptr inbounds nuw %struct.AVFilterLink, ptr %18, i32 0, i32 6
  %20 = load i32, ptr %19, align 8, !tbaa !83
  %21 = load ptr, ptr %3, align 8, !tbaa !44
  %22 = getelementptr inbounds nuw %struct.AVFilterLink, ptr %21, i32 0, i32 7
  %23 = load i32, ptr %22, align 4, !tbaa !84
  %24 = call ptr @ff_get_video_buffer(ptr noundef %17, i32 noundef %20, i32 noundef %23)
  %25 = load ptr, ptr %4, align 8, !tbaa !22
  %26 = getelementptr inbounds nuw %struct.DetelecineContext, ptr %25, i32 0, i32 15
  store ptr %24, ptr %26, align 8, !tbaa !63
  %27 = load ptr, ptr %4, align 8, !tbaa !22
  %28 = getelementptr inbounds nuw %struct.DetelecineContext, ptr %27, i32 0, i32 15
  %29 = load ptr, ptr %28, align 8, !tbaa !63
  %30 = icmp ne ptr %29, null
  br i1 %30, label %32, label %31

31:                                               ; preds = %1
  store i32 -12, ptr %2, align 4
  store i32 1, ptr %7, align 4
  br label %137

32:                                               ; preds = %1
  %33 = load ptr, ptr %3, align 8, !tbaa !44
  %34 = load ptr, ptr %3, align 8, !tbaa !44
  %35 = getelementptr inbounds nuw %struct.AVFilterLink, ptr %34, i32 0, i32 6
  %36 = load i32, ptr %35, align 8, !tbaa !83
  %37 = load ptr, ptr %3, align 8, !tbaa !44
  %38 = getelementptr inbounds nuw %struct.AVFilterLink, ptr %37, i32 0, i32 7
  %39 = load i32, ptr %38, align 4, !tbaa !84
  %40 = call ptr @ff_get_video_buffer(ptr noundef %33, i32 noundef %36, i32 noundef %39)
  %41 = load ptr, ptr %4, align 8, !tbaa !22
  %42 = getelementptr inbounds nuw %struct.DetelecineContext, ptr %41, i32 0, i32 14
  %43 = getelementptr inbounds [2 x ptr], ptr %42, i64 0, i64 0
  store ptr %40, ptr %43, align 8, !tbaa !46
  %44 = load ptr, ptr %4, align 8, !tbaa !22
  %45 = getelementptr inbounds nuw %struct.DetelecineContext, ptr %44, i32 0, i32 14
  %46 = getelementptr inbounds [2 x ptr], ptr %45, i64 0, i64 0
  %47 = load ptr, ptr %46, align 8, !tbaa !46
  %48 = icmp ne ptr %47, null
  br i1 %48, label %50, label %49

49:                                               ; preds = %32
  store i32 -12, ptr %2, align 4
  store i32 1, ptr %7, align 4
  br label %137

50:                                               ; preds = %32
  %51 = load ptr, ptr %3, align 8, !tbaa !44
  %52 = load ptr, ptr %3, align 8, !tbaa !44
  %53 = getelementptr inbounds nuw %struct.AVFilterLink, ptr %52, i32 0, i32 6
  %54 = load i32, ptr %53, align 8, !tbaa !83
  %55 = load ptr, ptr %3, align 8, !tbaa !44
  %56 = getelementptr inbounds nuw %struct.AVFilterLink, ptr %55, i32 0, i32 7
  %57 = load i32, ptr %56, align 4, !tbaa !84
  %58 = call ptr @ff_get_video_buffer(ptr noundef %51, i32 noundef %54, i32 noundef %57)
  %59 = load ptr, ptr %4, align 8, !tbaa !22
  %60 = getelementptr inbounds nuw %struct.DetelecineContext, ptr %59, i32 0, i32 14
  %61 = getelementptr inbounds [2 x ptr], ptr %60, i64 0, i64 1
  store ptr %58, ptr %61, align 8, !tbaa !46
  %62 = load ptr, ptr %4, align 8, !tbaa !22
  %63 = getelementptr inbounds nuw %struct.DetelecineContext, ptr %62, i32 0, i32 14
  %64 = getelementptr inbounds [2 x ptr], ptr %63, i64 0, i64 1
  %65 = load ptr, ptr %64, align 8, !tbaa !46
  %66 = icmp ne ptr %65, null
  br i1 %66, label %68, label %67

67:                                               ; preds = %50
  store i32 -12, ptr %2, align 4
  store i32 1, ptr %7, align 4
  br label %137

68:                                               ; preds = %50
  %69 = load ptr, ptr %4, align 8, !tbaa !22
  %70 = getelementptr inbounds nuw %struct.DetelecineContext, ptr %69, i32 0, i32 13
  %71 = getelementptr inbounds [4 x i32], ptr %70, i64 0, i64 0
  %72 = load ptr, ptr %3, align 8, !tbaa !44
  %73 = getelementptr inbounds nuw %struct.AVFilterLink, ptr %72, i32 0, i32 5
  %74 = load i32, ptr %73, align 4, !tbaa !80
  %75 = load ptr, ptr %3, align 8, !tbaa !44
  %76 = getelementptr inbounds nuw %struct.AVFilterLink, ptr %75, i32 0, i32 6
  %77 = load i32, ptr %76, align 8, !tbaa !83
  %78 = call i32 @av_image_fill_linesizes(ptr noundef %71, i32 noundef %74, i32 noundef %77)
  store i32 %78, ptr %6, align 4, !tbaa !24
  %79 = icmp slt i32 %78, 0
  br i1 %79, label %80, label %82

80:                                               ; preds = %68
  %81 = load i32, ptr %6, align 4, !tbaa !24
  store i32 %81, ptr %2, align 4
  store i32 1, ptr %7, align 4
  br label %137

82:                                               ; preds = %68
  %83 = load ptr, ptr %5, align 8, !tbaa !81
  %84 = getelementptr inbounds nuw %struct.AVPixFmtDescriptor, ptr %83, i32 0, i32 3
  %85 = load i8, ptr %84, align 2, !tbaa !85
  %86 = call i1 @llvm.is.constant.i8(i8 %85)
  br i1 %86, label %98, label %87

87:                                               ; preds = %82
  %88 = load ptr, ptr %3, align 8, !tbaa !44
  %89 = getelementptr inbounds nuw %struct.AVFilterLink, ptr %88, i32 0, i32 7
  %90 = load i32, ptr %89, align 4, !tbaa !84
  %91 = sub nsw i32 0, %90
  %92 = load ptr, ptr %5, align 8, !tbaa !81
  %93 = getelementptr inbounds nuw %struct.AVPixFmtDescriptor, ptr %92, i32 0, i32 3
  %94 = load i8, ptr %93, align 2, !tbaa !85
  %95 = zext i8 %94 to i32
  %96 = ashr i32 %91, %95
  %97 = sub nsw i32 0, %96
  br label %114

98:                                               ; preds = %82
  %99 = load ptr, ptr %3, align 8, !tbaa !44
  %100 = getelementptr inbounds nuw %struct.AVFilterLink, ptr %99, i32 0, i32 7
  %101 = load i32, ptr %100, align 4, !tbaa !84
  %102 = load ptr, ptr %5, align 8, !tbaa !81
  %103 = getelementptr inbounds nuw %struct.AVPixFmtDescriptor, ptr %102, i32 0, i32 3
  %104 = load i8, ptr %103, align 2, !tbaa !85
  %105 = zext i8 %104 to i32
  %106 = shl i32 1, %105
  %107 = add nsw i32 %101, %106
  %108 = sub nsw i32 %107, 1
  %109 = load ptr, ptr %5, align 8, !tbaa !81
  %110 = getelementptr inbounds nuw %struct.AVPixFmtDescriptor, ptr %109, i32 0, i32 3
  %111 = load i8, ptr %110, align 2, !tbaa !85
  %112 = zext i8 %111 to i32
  %113 = ashr i32 %108, %112
  br label %114

114:                                              ; preds = %98, %87
  %115 = phi i32 [ %97, %87 ], [ %113, %98 ]
  %116 = load ptr, ptr %4, align 8, !tbaa !22
  %117 = getelementptr inbounds nuw %struct.DetelecineContext, ptr %116, i32 0, i32 12
  %118 = getelementptr inbounds [4 x i32], ptr %117, i64 0, i64 2
  store i32 %115, ptr %118, align 8, !tbaa !24
  %119 = load ptr, ptr %4, align 8, !tbaa !22
  %120 = getelementptr inbounds nuw %struct.DetelecineContext, ptr %119, i32 0, i32 12
  %121 = getelementptr inbounds [4 x i32], ptr %120, i64 0, i64 1
  store i32 %115, ptr %121, align 4, !tbaa !24
  %122 = load ptr, ptr %3, align 8, !tbaa !44
  %123 = getelementptr inbounds nuw %struct.AVFilterLink, ptr %122, i32 0, i32 7
  %124 = load i32, ptr %123, align 4, !tbaa !84
  %125 = load ptr, ptr %4, align 8, !tbaa !22
  %126 = getelementptr inbounds nuw %struct.DetelecineContext, ptr %125, i32 0, i32 12
  %127 = getelementptr inbounds [4 x i32], ptr %126, i64 0, i64 3
  store i32 %124, ptr %127, align 4, !tbaa !24
  %128 = load ptr, ptr %4, align 8, !tbaa !22
  %129 = getelementptr inbounds nuw %struct.DetelecineContext, ptr %128, i32 0, i32 12
  %130 = getelementptr inbounds [4 x i32], ptr %129, i64 0, i64 0
  store i32 %124, ptr %130, align 8, !tbaa !24
  %131 = load ptr, ptr %3, align 8, !tbaa !44
  %132 = getelementptr inbounds nuw %struct.AVFilterLink, ptr %131, i32 0, i32 5
  %133 = load i32, ptr %132, align 4, !tbaa !80
  %134 = call i32 @av_pix_fmt_count_planes(i32 noundef %133)
  %135 = load ptr, ptr %4, align 8, !tbaa !22
  %136 = getelementptr inbounds nuw %struct.DetelecineContext, ptr %135, i32 0, i32 11
  store i32 %134, ptr %136, align 4, !tbaa !62
  store i32 0, ptr %2, align 4
  store i32 1, ptr %7, align 4
  br label %137

137:                                              ; preds = %114, %80, %67, %49, %31
  call void @llvm.lifetime.end.p0(i64 4, ptr %6) #11
  call void @llvm.lifetime.end.p0(i64 8, ptr %5) #11
  call void @llvm.lifetime.end.p0(i64 8, ptr %4) #11
  %138 = load i32, ptr %2, align 4
  ret i32 %138
}