; Function Attrs: nounwind uwtable
define internal range(i32 -2147483648, 1) i32 @config_input(ptr noundef %0) #1 {
  %2 = getelementptr inbounds nuw i8, ptr %0, i64 16
  %3 = load ptr, ptr %2, align 8, !tbaa !37
  %4 = getelementptr inbounds nuw i8, ptr %3, i64 72
  %5 = load ptr, ptr %4, align 8, !tbaa !4
  %6 = getelementptr inbounds nuw i8, ptr %0, i64 36
  %7 = load i32, ptr %6, align 4, !tbaa !73
  %8 = tail call ptr @av_pix_fmt_desc_get(i32 noundef %7) #5
  %9 = getelementptr inbounds nuw i8, ptr %0, i64 40
  %10 = load i32, ptr %9, align 8, !tbaa !74
  %11 = getelementptr inbounds nuw i8, ptr %0, i64 44
  %12 = load i32, ptr %11, align 4, !tbaa !75
  %13 = tail call ptr @ff_get_video_buffer(ptr noundef %0, i32 noundef %10, i32 noundef %12) #5
  %14 = getelementptr inbounds nuw i8, ptr %5, i64 120
  store ptr %13, ptr %14, align 8, !tbaa !54
  %.not = icmp eq ptr %13, null
  br i1 %.not, label %47, label %15

15:                                               ; preds = %1
  %16 = load i32, ptr %9, align 8, !tbaa !74
  %17 = load i32, ptr %11, align 4, !tbaa !75
  %18 = tail call ptr @ff_get_video_buffer(ptr noundef nonnull %0, i32 noundef %16, i32 noundef %17) #5
  %19 = getelementptr inbounds nuw i8, ptr %5, i64 104
  store ptr %18, ptr %19, align 8, !tbaa !36
  %.not35 = icmp eq ptr %18, null
  br i1 %.not35, label %47, label %20

20:                                               ; preds = %15
  %21 = load i32, ptr %9, align 8, !tbaa !74
  %22 = load i32, ptr %11, align 4, !tbaa !75
  %23 = tail call ptr @ff_get_video_buffer(ptr noundef nonnull %0, i32 noundef %21, i32 noundef %22) #5
  %24 = getelementptr inbounds nuw i8, ptr %5, i64 112
  store ptr %23, ptr %24, align 8, !tbaa !36
  %.not36 = icmp eq ptr %23, null
  br i1 %.not36, label %47, label %25

25:                                               ; preds = %20
  %26 = getelementptr inbounds nuw i8, ptr %5, i64 88
  %27 = load i32, ptr %6, align 4, !tbaa !73
  %28 = load i32, ptr %9, align 8, !tbaa !74
  %29 = tail call i32 @av_image_fill_linesizes(ptr noundef nonnull %26, i32 noundef %27, i32 noundef %28) #5
  %30 = icmp slt i32 %29, 0
  br i1 %30, label %47, label %31

31:                                               ; preds = %25
  %32 = load i32, ptr %11, align 4, !tbaa !75
  %33 = sub nsw i32 0, %32
  %34 = getelementptr inbounds nuw i8, ptr %8, i64 10
  %35 = load i8, ptr %34, align 2, !tbaa !76
  %36 = zext nneg i8 %35 to i32
  %37 = ashr i32 %33, %36
  %38 = sub nsw i32 0, %37
  %39 = getelementptr inbounds nuw i8, ptr %5, i64 72
  %40 = getelementptr inbounds nuw i8, ptr %5, i64 80
  store i32 %38, ptr %40, align 8, !tbaa !56
  %41 = getelementptr inbounds nuw i8, ptr %5, i64 76
  store i32 %38, ptr %41, align 4, !tbaa !56
  %42 = load i32, ptr %11, align 4, !tbaa !75
  %43 = getelementptr inbounds nuw i8, ptr %5, i64 84
  store i32 %42, ptr %43, align 4, !tbaa !56
  store i32 %42, ptr %39, align 8, !tbaa !56
  %44 = load i32, ptr %6, align 4, !tbaa !73
  %45 = tail call i32 @av_pix_fmt_count_planes(i32 noundef %44) #5
  %46 = getelementptr inbounds nuw i8, ptr %5, i64 68
  store i32 %45, ptr %46, align 4, !tbaa !53
  br label %47

47:                                               ; preds = %25, %20, %15, %1, %31
  %.0 = phi i32 [ 0, %31 ], [ -12, %1 ], [ -12, %15 ], [ -12, %20 ], [ %29, %25 ]
  ret i32 %.0
}